target datalayout = "e-m:e-p270:32:32-p271:32:32-p272:64:64-i64:64-i128:128-f80:128-n8:16:32:64-S128"
target triple = "x86_64-unknown-linux-gnu"

; Function Attrs: mustprogress nounwind uwtable
define noundef signext i8 @_ZN6icu_7516CollationBuilder7sameCEsEPKliS2_i(ptr noundef %ces1, i32 noundef %ces1Length, ptr noundef %ces2, i32 noundef %ces2Length) #3 align 2 {
entry:
  %retval = alloca i8, align 1
  %ces1.addr = alloca ptr, align 8
  %ces1Length.addr = alloca i32, align 4
  %ces2.addr = alloca ptr, align 8
  %ces2Length.addr = alloca i32, align 4
  %i = alloca i32, align 4
  store ptr %ces1, ptr %ces1.addr, align 8
  store i32 %ces1Length, ptr %ces1Length.addr, align 4
  store ptr %ces2, ptr %ces2.addr, align 8
  store i32 %ces2Length, ptr %ces2Length.addr, align 4
  %0 = load i32, ptr %ces1Length.addr, align 4
  %1 = load i32, ptr %ces2Length.addr, align 4
  %cmp = icmp ne i32 %0, %1
  br i1 %cmp, label %if.then, label %if.end

if.then:                                          ; preds = %entry
  store i8 0, ptr %retval, align 1
  br label %return

if.end:                                           ; preds = %entry
  store i32 0, ptr %i, align 4
  br label %for.cond

for.cond:                                         ; preds = %for.inc, %if.end
  %2 = load i32, ptr %i, align 4
  %3 = load i32, ptr %ces1Length.addr, align 4
  %cmp1 = icmp slt i32 %2, %3
  br i1 %cmp1, label %for.body, label %for.end

for.body:                                         ; preds = %for.cond
  %4 = load ptr, ptr %ces1.addr, align 8
  %5 = load i32, ptr %i, align 4
  %idxprom = sext i32 %5 to i64
  %arrayidx = getelementptr inbounds i64, ptr %4, i64 %idxprom
  %6 = load i64, ptr %arrayidx, align 8
  %7 = load ptr, ptr %ces2.addr, align 8
  %8 = load i32, ptr %i, align 4
  %idxprom2 = sext i32 %8 to i64
  %arrayidx3 = getelementptr inbounds i64, ptr %7, i64 %idxprom2
  %9 = load i64, ptr %arrayidx3, align 8
  %cmp4 = icmp ne i64 %6, %9
  br i1 %cmp4, label %if.then5, label %if.end6

if.then5:                                         ; preds = %for.body
  store i8 0, ptr %retval, align 1
  br label %return

if.end6:                                          ; preds = %for.body
  br label %for.inc

for.inc:                                          ; preds = %if.end6
  %10 = load i32, ptr %i, align 4
  %inc = add nsw i32 %10, 1
  store i32 %inc, ptr %i, align 4
  br label %for.cond, !llvm.loop !30

for.end:                                          ; preds = %for.cond
  store i8 1, ptr %retval, align 1
  br label %return

return:                                           ; preds = %for.end, %if.then5, %if.then
  %11 = load i8, ptr %retval, align 1
  ret i8 %11
}