; Function Attrs: mustprogress nofree norecurse nosync nounwind willreturn memory(argmem: read) uwtable
define noundef signext i8 @_ZN6icu_7516CollationBuilder7sameCEsEPKliS2_i(ptr nocapture noundef readonly %ces1, i32 noundef %ces1Length, ptr nocapture noundef readonly %ces2, i32 noundef %ces2Length) local_unnamed_addr #8 align 2 {
entry:
  %cmp.not = icmp eq i32 %ces1Length, %ces2Length
  br i1 %cmp.not, label %for.cond.preheader, label %return

for.cond.preheader:                               ; preds = %entry
  %cmp15 = icmp sgt i32 %ces1Length, 0
  br i1 %cmp15, label %for.body.preheader, label %return

for.body.preheader:                               ; preds = %for.cond.preheader
  %wide.trip.count = zext nneg i32 %ces1Length to i64
  br label %for.body

for.cond:                                         ; preds = %for.body
  %indvars.iv.next = add nuw nsw i64 %indvars.iv, 1
  %exitcond.not = icmp eq i64 %indvars.iv.next, %wide.trip.count
  br i1 %exitcond.not, label %return, label %for.body, !llvm.loop !10

for.body:                                         ; preds = %for.body.preheader, %for.cond
  %indvars.iv = phi i64 [ 0, %for.body.preheader ], [ %indvars.iv.next, %for.cond ]
  %arrayidx = getelementptr inbounds i64, ptr %ces1, i64 %indvars.iv
  %0 = load i64, ptr %arrayidx, align 8
  %arrayidx3 = getelementptr inbounds i64, ptr %ces2, i64 %indvars.iv
  %1 = load i64, ptr %arrayidx3, align 8
  %cmp4.not = icmp eq i64 %0, %1
  br i1 %cmp4.not, label %for.cond, label %return

return:                                           ; preds = %for.body, %for.cond, %for.cond.preheader, %entry
  %retval.0 = phi i8 [ 0, %entry ], [ 1, %for.cond.preheader ], [ 0, %for.body ], [ 1, %for.cond ]
  ret i8 %retval.0
}